target datalayout = "e-m:e-p270:32:32-p271:32:32-p272:64:64-i64:64-i128:128-f80:128-n8:16:32:64-S128"
target triple = "x86_64-pc-linux-gnu"

%struct.engine_st = type { ptr, ptr, ptr, ptr, ptr, ptr, ptr, ptr, ptr, ptr, ptr, ptr, ptr, ptr, ptr, ptr, ptr, ptr, ptr, i32, %struct.CRYPTO_REF_COUNT, i32, %struct.crypto_ex_data_st, ptr, ptr, ptr, ptr, ptr }
%struct.CRYPTO_REF_COUNT = type { i32 }
%struct.crypto_ex_data_st = type { ptr, ptr }

@global_engine_lock = external global ptr, align 8
@engine_dyn_list_head = internal global ptr null, align 8
@engine_dyn_list_tail = internal global ptr null, align 8

; Function Attrs: nounwind uwtable
define void @engine_remove_dynamic_id(ptr noundef %0, i32 noundef %1) #0 {
  %3 = alloca ptr, align 8
  %4 = alloca i32, align 4
  store ptr %0, ptr %3, align 8, !tbaa !3
  store i32 %1, ptr %4, align 4, !tbaa !9
  %5 = load ptr, ptr %3, align 8, !tbaa !3
  %6 = icmp eq ptr %5, null
  br i1 %6, label %12, label %7

7:                                                ; preds = %2
  %8 = load ptr, ptr %3, align 8, !tbaa !3
  %9 = getelementptr inbounds nuw %struct.engine_st, ptr %8, i32 0, i32 27
  %10 = load ptr, ptr %9, align 8, !tbaa !11
  %11 = icmp eq ptr %10, null
  br i1 %11, label %12, label %13

12:                                               ; preds = %7, %2
  br label %71

13:                                               ; preds = %7
  %14 = load i32, ptr %4, align 4, !tbaa !9
  %15 = icmp ne i32 %14, 0
  br i1 %15, label %16, label %21

16:                                               ; preds = %13
  %17 = load ptr, ptr @global_engine_lock, align 8, !tbaa !8
  %18 = call i32 @CRYPTO_THREAD_write_lock(ptr noundef %17)
  %19 = icmp ne i32 %18, 0
  br i1 %19, label %21, label %20

20:                                               ; preds = %16
  br label %71

21:                                               ; preds = %16, %13
  %22 = load ptr, ptr %3, align 8, !tbaa !3
  %23 = getelementptr inbounds nuw %struct.engine_st, ptr %22, i32 0, i32 27
  store ptr null, ptr %23, align 8, !tbaa !11
  %24 = load ptr, ptr %3, align 8, !tbaa !3
  %25 = getelementptr inbounds nuw %struct.engine_st, ptr %24, i32 0, i32 26
  %26 = load ptr, ptr %25, align 8, !tbaa !28
  %27 = icmp ne ptr %26, null
  br i1 %27, label %28, label %36

28:                                               ; preds = %21
  %29 = load ptr, ptr %3, align 8, !tbaa !3
  %30 = getelementptr inbounds nuw %struct.engine_st, ptr %29, i32 0, i32 25
  %31 = load ptr, ptr %30, align 8, !tbaa !27
  %32 = load ptr, ptr %3, align 8, !tbaa !3
  %33 = getelementptr inbounds nuw %struct.engine_st, ptr %32, i32 0, i32 26
  %34 = load ptr, ptr %33, align 8, !tbaa !28
  %35 = getelementptr inbounds nuw %struct.engine_st, ptr %34, i32 0, i32 25
  store ptr %31, ptr %35, align 8, !tbaa !27
  br label %36

36:                                               ; preds = %28, %21
  %37 = load ptr, ptr %3, align 8, !tbaa !3
  %38 = getelementptr inbounds nuw %struct.engine_st, ptr %37, i32 0, i32 25
  %39 = load ptr, ptr %38, align 8, !tbaa !27
  %40 = icmp ne ptr %39, null
  br i1 %40, label %41, label %49

41:                                               ; preds = %36
  %42 = load ptr, ptr %3, align 8, !tbaa !3
  %43 = getelementptr inbounds nuw %struct.engine_st, ptr %42, i32 0, i32 26
  %44 = load ptr, ptr %43, align 8, !tbaa !28
  %45 = load ptr, ptr %3, align 8, !tbaa !3
  %46 = getelementptr inbounds nuw %struct.engine_st, ptr %45, i32 0, i32 25
  %47 = load ptr, ptr %46, align 8, !tbaa !27
  %48 = getelementptr inbounds nuw %struct.engine_st, ptr %47, i32 0, i32 26
  store ptr %44, ptr %48, align 8, !tbaa !28
  br label %49

49:                                               ; preds = %41, %36
  %50 = load ptr, ptr @engine_dyn_list_head, align 8, !tbaa !3
  %51 = load ptr, ptr %3, align 8, !tbaa !3
  %52 = icmp eq ptr %50, %51
  br i1 %52, label %53, label %57

53:                                               ; preds = %49
  %54 = load ptr, ptr %3, align 8, !tbaa !3
  %55 = getelementptr inbounds nuw %struct.engine_st, ptr %54, i32 0, i32 26
  %56 = load ptr, ptr %55, align 8, !tbaa !28
  store ptr %56, ptr @engine_dyn_list_head, align 8, !tbaa !3
  br label %57

57:                                               ; preds = %53, %49
  %58 = load ptr, ptr @engine_dyn_list_tail, align 8, !tbaa !3
  %59 = load ptr, ptr %3, align 8, !tbaa !3
  %60 = icmp eq ptr %58, %59
  br i1 %60, label %61, label %65

61:                                               ; preds = %57
  %62 = load ptr, ptr %3, align 8, !tbaa !3
  %63 = getelementptr inbounds nuw %struct.engine_st, ptr %62, i32 0, i32 25
  %64 = load ptr, ptr %63, align 8, !tbaa !27
  store ptr %64, ptr @engine_dyn_list_tail, align 8, !tbaa !3
  br label %65

65:                                               ; preds = %61, %57
  %66 = load i32, ptr %4, align 4, !tbaa !9
  %67 = icmp ne i32 %66, 0
  br i1 %67, label %68, label %71

68:                                               ; preds = %65
  %69 = load ptr, ptr @global_engine_lock, align 8, !tbaa !8
  %70 = call i32 @CRYPTO_THREAD_unlock(ptr noundef %69)
  br label %71

71:                                               ; preds = %12, %20, %68, %65
  ret void
}