; Function Attrs: nounwind uwtable
define void @engine_remove_dynamic_id(ptr noundef captures(address) %0, i32 noundef %1) local_unnamed_addr #0 {
  %3 = icmp eq ptr %0, null
  br i1 %3, label %32, label %4

4:                                                ; preds = %2
  %5 = getelementptr inbounds nuw i8, ptr %0, i64 216
  %6 = load ptr, ptr %5, align 8, !tbaa !3
  %7 = icmp eq ptr %6, null
  br i1 %7, label %32, label %8

8:                                                ; preds = %4
  %.not = icmp eq i32 %1, 0
  br i1 %.not, label %12, label %9

9:                                                ; preds = %8
  %10 = load ptr, ptr @global_engine_lock, align 8, !tbaa !21
  %11 = tail call i32 @CRYPTO_THREAD_write_lock(ptr noundef %10) #4
  %.not16 = icmp eq i32 %11, 0
  br i1 %.not16, label %32, label %12

12:                                               ; preds = %9, %8
  store ptr null, ptr %5, align 8, !tbaa !3
  %13 = getelementptr inbounds nuw i8, ptr %0, i64 208
  %14 = load ptr, ptr %13, align 8, !tbaa !25
  %.not17 = icmp eq ptr %14, null
  %.phi.trans.insert = getelementptr inbounds nuw i8, ptr %0, i64 200
  %.pre = load ptr, ptr %.phi.trans.insert, align 8, !tbaa !26
  br i1 %.not17, label %._crit_edge, label %15

15:                                               ; preds = %12
  %16 = getelementptr inbounds nuw i8, ptr %14, i64 200
  store ptr %.pre, ptr %16, align 8, !tbaa !26
  br label %._crit_edge

._crit_edge:                                      ; preds = %12, %15
  %.not18 = icmp eq ptr %.pre, null
  br i1 %.not18, label %19, label %17

17:                                               ; preds = %._crit_edge
  %18 = getelementptr inbounds nuw i8, ptr %.pre, i64 208
  store ptr %14, ptr %18, align 8, !tbaa !25
  br label %19

19:                                               ; preds = %17, %._crit_edge
  %20 = load ptr, ptr @engine_dyn_list_head, align 8, !tbaa !22
  %21 = icmp eq ptr %20, %0
  br i1 %21, label %22, label %24

22:                                               ; preds = %19
  %23 = load ptr, ptr %13, align 8, !tbaa !25
  store ptr %23, ptr @engine_dyn_list_head, align 8, !tbaa !22
  br label %24

24:                                               ; preds = %22, %19
  %25 = load ptr, ptr @engine_dyn_list_tail, align 8, !tbaa !22
  %26 = icmp eq ptr %25, %0
  br i1 %26, label %27, label %28

27:                                               ; preds = %24
  store ptr %.pre, ptr @engine_dyn_list_tail, align 8, !tbaa !22
  br label %28

28:                                               ; preds = %27, %24
  br i1 %.not, label %32, label %29

29:                                               ; preds = %28
  %30 = load ptr, ptr @global_engine_lock, align 8, !tbaa !21
  %31 = tail call i32 @CRYPTO_THREAD_unlock(ptr noundef %30) #4
  br label %32

32:                                               ; preds = %9, %2, %4, %29, %28
  ret void
}